; Function Attrs: nounwind uwtable
define ptr @l_Lean_withHeartbeats___rarg(ptr noundef %0, ptr noundef %1, ptr noundef %2) #0 {
  %4 = getelementptr inbounds nuw i8, ptr %0, i64 16
  %5 = load ptr, ptr %4, align 8, !tbaa !4
  %6 = ptrtoint ptr %5 to i64
  %7 = and i64 %6, 1
  %.not = icmp eq i64 %7, 0
  br i1 %.not, label %8, label %lean_inc.exit19

8:                                                ; preds = %3
  %.val.i = load i32, ptr %5, align 4, !tbaa !8
  %9 = icmp sgt i32 %.val.i, 0
  br i1 %9, label %10, label %12, !prof !11

10:                                               ; preds = %8
  %11 = add nuw i32 %.val.i, 1
  store i32 %11, ptr %5, align 4, !tbaa !8
  br label %lean_inc.exit19

12:                                               ; preds = %8
  %.not.i = icmp eq i32 %.val.i, 0
  br i1 %.not.i, label %lean_inc.exit19, label %13

13:                                               ; preds = %12
  tail call void @lean_inc_ref_cold(ptr noundef nonnull %5) #5
  br label %lean_inc.exit19

lean_inc.exit19:                                  ; preds = %13, %12, %10, %3
  %14 = load ptr, ptr @l_Lean_withHeartbeats___rarg___closed__1, align 8, !tbaa !4
  %15 = tail call ptr @lean_apply_2(ptr noundef %1, ptr noundef nonnull inttoptr (i64 1 to ptr), ptr noundef %14) #5
  %16 = ptrtoint ptr %15 to i64
  %17 = and i64 %16, 1
  %.not26 = icmp eq i64 %17, 0
  br i1 %.not26, label %18, label %lean_inc.exit18

18:                                               ; preds = %lean_inc.exit19
  %.val.i20 = load i32, ptr %15, align 4, !tbaa !8
  %19 = icmp sgt i32 %.val.i20, 0
  br i1 %19, label %20, label %22, !prof !11

20:                                               ; preds = %18
  %21 = add nuw i32 %.val.i20, 1
  store i32 %21, ptr %15, align 4, !tbaa !8
  br label %lean_inc.exit18

22:                                               ; preds = %18
  %.not.i21 = icmp eq i32 %.val.i20, 0
  br i1 %.not.i21, label %lean_inc.exit18, label %23

23:                                               ; preds = %22
  tail call void @lean_inc_ref_cold(ptr noundef nonnull %15) #5
  br label %lean_inc.exit18

lean_inc.exit18:                                  ; preds = %23, %22, %20, %lean_inc.exit19
  br i1 %.not, label %24, label %lean_inc.exit

24:                                               ; preds = %lean_inc.exit18
  %.val.i23 = load i32, ptr %5, align 4, !tbaa !8
  %25 = icmp sgt i32 %.val.i23, 0
  br i1 %25, label %26, label %28, !prof !11

26:                                               ; preds = %24
  %27 = add nuw i32 %.val.i23, 1
  store i32 %27, ptr %5, align 4, !tbaa !8
  br label %lean_inc.exit

28:                                               ; preds = %24
  %.not.i24 = icmp eq i32 %.val.i23, 0
  br i1 %.not.i24, label %lean_inc.exit, label %29

29:                                               ; preds = %28
  tail call void @lean_inc_ref_cold(ptr noundef nonnull %5) #5
  br label %lean_inc.exit

lean_inc.exit:                                    ; preds = %29, %28, %26, %lean_inc.exit18
  tail call void @lean_inc_heartbeat() #5
  %30 = tail call noalias ptr @mi_malloc_small(i64 noundef 56) #5
  %31 = icmp eq ptr %30, null
  br i1 %31, label %32, label %lean_alloc_closure.exit

32:                                               ; preds = %lean_inc.exit
  tail call void @lean_internal_panic_out_of_memory() #6
  unreachable

lean_alloc_closure.exit:                          ; preds = %lean_inc.exit
  %33 = getelementptr inbounds nuw i8, ptr %30, i64 4
  store i32 1, ptr %30, align 4, !tbaa !8
  store i32 -184549320, ptr %33, align 4
  %34 = getelementptr inbounds nuw i8, ptr %30, i64 8
  store ptr @l_Lean_withHeartbeats___rarg___lambda__3, ptr %34, align 8, !tbaa !4
  %35 = getelementptr inbounds nuw i8, ptr %30, i64 16
  store i16 5, ptr %35, align 8, !tbaa !13
  %36 = getelementptr inbounds nuw i8, ptr %30, i64 18
  store i16 4, ptr %36, align 2, !tbaa !13
  %37 = getelementptr inbounds nuw i8, ptr %30, i64 24
  store ptr %0, ptr %37, align 8, !tbaa !4
  %38 = getelementptr inbounds nuw i8, ptr %30, i64 32
  store ptr %5, ptr %38, align 8, !tbaa !4
  %39 = getelementptr inbounds nuw i8, ptr %30, i64 40
  store ptr %15, ptr %39, align 8, !tbaa !4
  %40 = getelementptr inbounds nuw i8, ptr %30, i64 48
  store ptr %2, ptr %40, align 8, !tbaa !4
  %41 = tail call ptr @lean_apply_4(ptr noundef %5, ptr noundef nonnull inttoptr (i64 1 to ptr), ptr noundef nonnull inttoptr (i64 1 to ptr), ptr noundef %15, ptr noundef nonnull %30) #5
  ret ptr %41
}